target datalayout = "e-m:e-p270:32:32-p271:32:32-p272:64:64-i64:64-i128:128-f80:128-n8:16:32:64-S128"
target triple = "x86_64-pc-linux-gnu"

%"class.pxrInternal_v0_24__pxrReserved__::HdSceneIndexPrimView::const_iterator" = type <{ %"class.pxrInternal_v0_24__pxrReserved__::TfRefPtr", %"class.std::vector", i8, [7 x i8] }>
%"class.pxrInternal_v0_24__pxrReserved__::TfRefPtr" = type { ptr }
%"class.std::vector" = type { %"struct.std::_Vector_base" }
%"struct.std::_Vector_base" = type { %"struct.std::_Vector_base<pxrInternal_v0_24__pxrReserved__::HdSceneIndexPrimView::const_iterator::_StackFrame, std::allocator<pxrInternal_v0_24__pxrReserved__::HdSceneIndexPrimView::const_iterator::_StackFrame>>::_Vector_impl" }
%"struct.std::_Vector_base<pxrInternal_v0_24__pxrReserved__::HdSceneIndexPrimView::const_iterator::_StackFrame, std::allocator<pxrInternal_v0_24__pxrReserved__::HdSceneIndexPrimView::const_iterator::_StackFrame>>::_Vector_impl" = type { %"struct.std::_Vector_base<pxrInternal_v0_24__pxrReserved__::HdSceneIndexPrimView::const_iterator::_StackFrame, std::allocator<pxrInternal_v0_24__pxrReserved__::HdSceneIndexPrimView::const_iterator::_StackFrame>>::_Vector_impl_data" }
%"struct.std::_Vector_base<pxrInternal_v0_24__pxrReserved__::HdSceneIndexPrimView::const_iterator::_StackFrame, std::allocator<pxrInternal_v0_24__pxrReserved__::HdSceneIndexPrimView::const_iterator::_StackFrame>>::_Vector_impl_data" = type { ptr, ptr, ptr }
%"class.pxrInternal_v0_24__pxrReserved__::HdSceneIndexPrimView" = type { %"class.pxrInternal_v0_24__pxrReserved__::HdSceneIndexPrimView::const_iterator", %"class.pxrInternal_v0_24__pxrReserved__::HdSceneIndexPrimView::const_iterator" }

@_ZN32pxrInternal_v0_24__pxrReserved__20HdSceneIndexPrimView14const_iteratorC1ERKNS_8TfRefPtrINS_16HdSceneIndexBaseEEE = unnamed_addr alias void (ptr, ptr), ptr @_ZN32pxrInternal_v0_24__pxrReserved__20HdSceneIndexPrimView14const_iteratorC2ERKNS_8TfRefPtrINS_16HdSceneIndexBaseEEE

; Function Attrs: mustprogress uwtable
define void @_ZN32pxrInternal_v0_24__pxrReserved__20HdSceneIndexPrimViewC2ERKNS_8TfRefPtrINS_16HdSceneIndexBaseEEERKNS_7SdfPathE(ptr noundef nonnull align 8 dereferenceable(80) %0, ptr noundef nonnull align 8 dereferenceable(8) %1, ptr noundef nonnull align 4 dereferenceable(8) %2) unnamed_addr #0 align 2 personality ptr @__gxx_personality_v0 {
  %4 = alloca ptr, align 8
  %5 = alloca ptr, align 8
  %6 = alloca ptr, align 8
  %7 = alloca ptr, align 8
  %8 = alloca i32, align 4
  store ptr %0, ptr %4, align 8
  store ptr %1, ptr %5, align 8
  store ptr %2, ptr %6, align 8
  %9 = load ptr, ptr %4, align 8
  %10 = getelementptr inbounds nuw %"class.pxrInternal_v0_24__pxrReserved__::HdSceneIndexPrimView", ptr %9, i32 0, i32 0
  %11 = load ptr, ptr %5, align 8
  %12 = load ptr, ptr %6, align 8
  call void @_ZN32pxrInternal_v0_24__pxrReserved__20HdSceneIndexPrimView14const_iteratorC1ERKNS_8TfRefPtrINS_16HdSceneIndexBaseEEERKNS_7SdfPathE(ptr noundef nonnull align 8 dereferenceable(33) %10, ptr noundef nonnull align 8 dereferenceable(8) %11, ptr noundef nonnull align 4 dereferenceable(8) %12)
  %13 = getelementptr inbounds nuw %"class.pxrInternal_v0_24__pxrReserved__::HdSceneIndexPrimView", ptr %9, i32 0, i32 1
  %14 = load ptr, ptr %5, align 8
  invoke void @_ZN32pxrInternal_v0_24__pxrReserved__20HdSceneIndexPrimView14const_iteratorC1ERKNS_8TfRefPtrINS_16HdSceneIndexBaseEEE(ptr noundef nonnull align 8 dereferenceable(33) %13, ptr noundef nonnull align 8 dereferenceable(8) %14)
          to label %15 unwind label %16

15:                                               ; preds = %3
  ret void

16:                                               ; preds = %3
  %17 = landingpad { ptr, i32 }
          cleanup
  %18 = extractvalue { ptr, i32 } %17, 0
  store ptr %18, ptr %7, align 8
  %19 = extractvalue { ptr, i32 } %17, 1
  store i32 %19, ptr %8, align 4
  call void @_ZN32pxrInternal_v0_24__pxrReserved__20HdSceneIndexPrimView14const_iteratorD2Ev(ptr noundef nonnull align 8 dereferenceable(33) %10) #10
  br label %20

20:                                               ; preds = %16
  %21 = load ptr, ptr %7, align 8
  %22 = load i32, ptr %8, align 4
  %23 = insertvalue { ptr, i32 } poison, ptr %21, 0
  %24 = insertvalue { ptr, i32 } %23, i32 %22, 1
  resume { ptr, i32 } %24
}